target datalayout = "e-m:e-p270:32:32-p271:32:32-p272:64:64-i64:64-f80:128-n8:16:32:64-S128"
target triple = "x86_64-pc-linux-gnu"

%struct.student = type { [20 x i8], i32, i32, i8, i8, i32, double }

@.str = private unnamed_addr constant [3 x i8] c"%d\00", align 1
@.str.1 = private unnamed_addr constant [18 x i8] c"%s %d %d %c %c %d\00", align 1
@stu = common dso_local global [100 x %struct.student] zeroinitializer, align 16
@.str.2 = private unnamed_addr constant [4 x i8] c"%s\0A\00", align 1
@.str.3 = private unnamed_addr constant [6 x i8] c"%d\0A%d\00", align 1

; Function Attrs: noinline nounwind uwtable
define dso_local i32 @main() #0 {
  %1 = alloca i32, align 4
  %2 = alloca i32, align 4
  %3 = alloca i32, align 4
  %4 = alloca i32, align 4
  %5 = alloca i32, align 4
  store i32 0, i32* %1, align 4
  %6 = call i32 (i8*, ...) @__isoc99_scanf(i8* getelementptr inbounds ([3 x i8], [3 x i8]* @.str, i64 0, i64 0), i32* %2)
  store i32 0, i32* %3, align 4
  br label %7

7:                                                ; preds = %161, %0
  %8 = load i32, i32* %3, align 4
  %9 = load i32, i32* %2, align 4
  %10 = icmp slt i32 %8, %9
  br i1 %10, label %11, label %164

11:                                               ; preds = %7
  %12 = load i32, i32* %3, align 4
  %13 = sext i32 %12 to i64
  %14 = getelementptr inbounds [100 x %struct.student], [100 x %struct.student]* @stu, i64 0, i64 %13
  %15 = getelementptr inbounds %struct.student, %struct.student* %14, i32 0, i32 0
  %16 = load i32, i32* %3, align 4
  %17 = sext i32 %16 to i64
  %18 = getelementptr inbounds [100 x %struct.student], [100 x %struct.student]* @stu, i64 0, i64 %17
  %19 = getelementptr inbounds %struct.student, %struct.student* %18, i32 0, i32 1
  %20 = load i32, i32* %3, align 4
  %21 = sext i32 %20 to i64
  %22 = getelementptr inbounds [100 x %struct.student], [100 x %struct.student]* @stu, i64 0, i64 %21
  %23 = getelementptr inbounds %struct.student, %struct.student* %22, i32 0, i32 2
  %24 = load i32, i32* %3, align 4
  %25 = sext i32 %24 to i64
  %26 = getelementptr inbounds [100 x %struct.student], [100 x %struct.student]* @stu, i64 0, i64 %25
  %27 = getelementptr inbounds %struct.student, %struct.student* %26, i32 0, i32 3
  %28 = load i32, i32* %3, align 4
  %29 = sext i32 %28 to i64
  %30 = getelementptr inbounds [100 x %struct.student], [100 x %struct.student]* @stu, i64 0, i64 %29
  %31 = getelementptr inbounds %struct.student, %struct.student* %30, i32 0, i32 4
  %32 = load i32, i32* %3, align 4
  %33 = sext i32 %32 to i64
  %34 = getelementptr inbounds [100 x %struct.student], [100 x %struct.student]* @stu, i64 0, i64 %33
  %35 = getelementptr inbounds %struct.student, %struct.student* %34, i32 0, i32 5
  %36 = call i32 (i8*, ...) @__isoc99_scanf(i8* getelementptr inbounds ([18 x i8], [18 x i8]* @.str.1, i64 0, i64 0), [20 x i8]* %15, i32* %19, i32* %23, i8* %27, i8* %31, i32* %35)
  %37 = load i32, i32* %3, align 4
  %38 = sext i32 %37 to i64
  %39 = getelementptr inbounds [100 x %struct.student], [100 x %struct.student]* @stu, i64 0, i64 %38
  %40 = getelementptr inbounds %struct.student, %struct.student* %39, i32 0, i32 6
  store double 0.000000e+00, double* %40, align 8
  %41 = load i32, i32* %3, align 4
  %42 = sext i32 %41 to i64
  %43 = getelementptr inbounds [100 x %struct.student], [100 x %struct.student]* @stu, i64 0, i64 %42
  %44 = getelementptr inbounds %struct.student, %struct.student* %43, i32 0, i32 1
  %45 = load i32, i32* %44, align 4
  %46 = icmp sgt i32 %45, 80
  br i1 %46, label %47, label %65

47:                                               ; preds = %11
  %48 = load i32, i32* %3, align 4
  %49 = sext i32 %48 to i64
  %50 = getelementptr inbounds [100 x %struct.student], [100 x %struct.student]* @stu, i64 0, i64 %49
  %51 = getelementptr inbounds %struct.student, %struct.student* %50, i32 0, i32 5
  %52 = load i32, i32* %51, align 16
  %53 = icmp sgt i32 %52, 0
  br i1 %53, label %54, label %65

54:                                               ; preds = %47
  %55 = load i32, i32* %3, align 4
  %56 = sext i32 %55 to i64
  %57 = getelementptr inbounds [100 x %struct.student], [100 x %struct.student]* @stu, i64 0, i64 %56
  %58 = getelementptr inbounds %struct.student, %struct.student* %57, i32 0, i32 6
  %59 = load double, double* %58, align 8
  %60 = fadd double %59, 8.000000e+03
  %61 = load i32, i32* %3, align 4
  %62 = sext i32 %61 to i64
  %63 = getelementptr inbounds [100 x %struct.student], [100 x %struct.student]* @stu, i64 0, i64 %62
  %64 = getelementptr inbounds %struct.student, %struct.student* %63, i32 0, i32 6
  store double %60, double* %64, align 8
  br label %65

65:                                               ; preds = %54, %47, %11
  %66 = load i32, i32* %3, align 4
  %67 = sext i32 %66 to i64
  %68 = getelementptr inbounds [100 x %struct.student], [100 x %struct.student]* @stu, i64 0, i64 %67
  %69 = getelementptr inbounds %struct.student, %struct.student* %68, i32 0, i32 1
  %70 = load i32, i32* %69, align 4
  %71 = icmp sgt i32 %70, 85
  br i1 %71, label %72, label %90

72:                                               ; preds = %65
  %73 = load i32, i32* %3, align 4
  %74 = sext i32 %73 to i64
  %75 = getelementptr inbounds [100 x %struct.student], [100 x %struct.student]* @stu, i64 0, i64 %74
  %76 = getelementptr inbounds %struct.student, %struct.student* %75, i32 0, i32 2
  %77 = load i32, i32* %76, align 8
  %78 = icmp sgt i32 %77, 80
  br i1 %78, label %79, label %90

79:                                               ; preds = %72
  %80 = load i32, i32* %3, align 4
  %81 = sext i32 %80 to i64
  %82 = getelementptr inbounds [100 x %struct.student], [100 x %struct.student]* @stu, i64 0, i64 %81
  %83 = getelementptr inbounds %struct.student, %struct.student* %82, i32 0, i32 6
  %84 = load double, double* %83, align 8
  %85 = fadd double %84, 4.000000e+03
  %86 = load i32, i32* %3, align 4
  %87 = sext i32 %86 to i64
  %88 = getelementptr inbounds [100 x %struct.student], [100 x %struct.student]* @stu, i64 0, i64 %87
  %89 = getelementptr inbounds %struct.student, %struct.student* %88, i32 0, i32 6
  store double %85, double* %89, align 8
  br label %90

90:                                               ; preds = %79, %72, %65
  %91 = load i32, i32* %3, align 4
  %92 = sext i32 %91 to i64
  %93 = getelementptr inbounds [100 x %struct.student], [100 x %struct.student]* @stu, i64 0, i64 %92
  %94 = getelementptr inbounds %struct.student, %struct.student* %93, i32 0, i32 1
  %95 = load i32, i32* %94, align 4
  %96 = icmp sgt i32 %95, 90
  br i1 %96, label %97, label %108

97:                                               ; preds = %90
  %98 = load i32, i32* %3, align 4
  %99 = sext i32 %98 to i64
  %100 = getelementptr inbounds [100 x %struct.student], [100 x %struct.student]* @stu, i64 0, i64 %99
  %101 = getelementptr inbounds %struct.student, %struct.student* %100, i32 0, i32 6
  %102 = load double, double* %101, align 8
  %103 = fadd double %102, 2.000000e+03
  %104 = load i32, i32* %3, align 4
  %105 = sext i32 %104 to i64
  %106 = getelementptr inbounds [100 x %struct.student], [100 x %struct.student]* @stu, i64 0, i64 %105
  %107 = getelementptr inbounds %struct.student, %struct.student* %106, i32 0, i32 6
  store double %103, double* %107, align 8
  br label %108

108:                                              ; preds = %97, %90
  %109 = load i32, i32* %3, align 4
  %110 = sext i32 %109 to i64
  %111 = getelementptr inbounds [100 x %struct.student], [100 x %struct.student]* @stu, i64 0, i64 %110
  %112 = getelementptr inbounds %struct.student, %struct.student* %111, i32 0, i32 4
  %113 = load i8, i8* %112, align 1
  %114 = sext i8 %113 to i32
  %115 = icmp eq i32 %114, 89
  br i1 %115, label %116, label %134

116:                                              ; preds = %108
  %117 = load i32, i32* %3, align 4
  %118 = sext i32 %117 to i64
  %119 = getelementptr inbounds [100 x %struct.student], [100 x %struct.student]* @stu, i64 0, i64 %118
  %120 = getelementptr inbounds %struct.student, %struct.student* %119, i32 0, i32 1
  %121 = load i32, i32* %120, align 4
  %122 = icmp sgt i32 %121, 85
  br i1 %122, label %123, label %134

123:                                              ; preds = %116
  %124 = load i32, i32* %3, align 4
  %125 = sext i32 %124 to i64
  %126 = getelementptr inbounds [100 x %struct.student], [100 x %struct.student]* @stu, i64 0, i64 %125
  %127 = getelementptr inbounds %struct.student, %struct.student* %126, i32 0, i32 6
  %128 = load double, double* %127, align 8
  %129 = fadd double %128, 1.000000e+03
  %130 = load i32, i32* %3, align 4
  %131 = sext i32 %130 to i64
  %132 = getelementptr inbounds [100 x %struct.student], [100 x %struct.student]* @stu, i64 0, i64 %131
  %133 = getelementptr inbounds %struct.student, %struct.student* %132, i32 0, i32 6
  store double %129, double* %133, align 8
  br label %134

134:                                              ; preds = %123, %116, %108
  %135 = load i32, i32* %3, align 4
  %136 = sext i32 %135 to i64
  %137 = getelementptr inbounds [100 x %struct.student], [100 x %struct.student]* @stu, i64 0, i64 %136
  %138 = getelementptr inbounds %struct.student, %struct.student* %137, i32 0, i32 3
  %139 = load i8, i8* %138, align 4
  %140 = sext i8 %139 to i32
  %141 = icmp eq i32 %140, 89
  br i1 %141, label %142, label %160

142:                                              ; preds = %134
  %143 = load i32, i32* %3, align 4
  %144 = sext i32 %143 to i64
  %145 = getelementptr inbounds [100 x %struct.student], [100 x %struct.student]* @stu, i64 0, i64 %144
  %146 = getelementptr inbounds %struct.student, %struct.student* %145, i32 0, i32 2
  %147 = load i32, i32* %146, align 8
  %148 = icmp sgt i32 %147, 80
  br i1 %148, label %149, label %160

149:                                              ; preds = %142
  %150 = load i32, i32* %3, align 4
  %151 = sext i32 %150 to i64
  %152 = getelementptr inbounds [100 x %struct.student], [100 x %struct.student]* @stu, i64 0, i64 %151
  %153 = getelementptr inbounds %struct.student, %struct.student* %152, i32 0, i32 6
  %154 = load double, double* %153, align 8
  %155 = fadd double %154, 8.500000e+02
  %156 = load i32, i32* %3, align 4
  %157 = sext i32 %156 to i64
  %158 = getelementptr inbounds [100 x %struct.student], [100 x %struct.student]* @stu, i64 0, i64 %157
  %159 = getelementptr inbounds %struct.student, %struct.student* %158, i32 0, i32 6
  store double %155, double* %159, align 8
  br label %160

160:                                              ; preds = %149, %142, %134
  br label %161

161:                                              ; preds = %160
  %162 = load i32, i32* %3, align 4
  %163 = add nsw i32 %162, 1
  store i32 %163, i32* %3, align 4
  br label %7

164:                                              ; preds = %7
  store i32 0, i32* %4, align 4
  store i32 0, i32* %5, align 4
  store i32 0, i32* %3, align 4
  br label %165

165:                                              ; preds = %186, %164
  %166 = load i32, i32* %3, align 4
  %167 = load i32, i32* %2, align 4
  %168 = icmp slt i32 %166, %167
  br i1 %168, label %169, label %189

169:                                              ; preds = %165
  %170 = load i32, i32* %3, align 4
  %171 = sext i32 %170 to i64
  %172 = getelementptr inbounds [100 x %struct.student], [100 x %struct.student]* @stu, i64 0, i64 %171
  %173 = getelementptr inbounds %struct.student, %struct.student* %172, i32 0, i32 6
  %174 = load double, double* %173, align 8
  %175 = load i32, i32* %4, align 4
  %176 = sitofp i32 %175 to double
  %177 = fcmp ogt double %174, %176
  br i1 %177, label %178, label %185

178:                                              ; preds = %169
  %179 = load i32, i32* %3, align 4
  %180 = sext i32 %179 to i64
  %181 = getelementptr inbounds [100 x %struct.student], [100 x %struct.student]* @stu, i64 0, i64 %180
  %182 = getelementptr inbounds %struct.student, %struct.student* %181, i32 0, i32 6
  %183 = load double, double* %182, align 8
  %184 = fptosi double %183 to i32
  store i32 %184, i32* %4, align 4
  br label %185

185:                                              ; preds = %178, %169
  br label %186

186:                                              ; preds = %185
  %187 = load i32, i32* %3, align 4
  %188 = add nsw i32 %187, 1
  store i32 %188, i32* %3, align 4
  br label %165

189:                                              ; preds = %165
  store i32 0, i32* %3, align 4
  br label %190

190:                                              ; preds = %211, %189
  %191 = load i32, i32* %3, align 4
  %192 = load i32, i32* %2, align 4
  %193 = icmp slt i32 %191, %192
  br i1 %193, label %194, label %214

194:                                              ; preds = %190
  %195 = load i32, i32* %3, align 4
  %196 = sext i32 %195 to i64
  %197 = getelementptr inbounds [100 x %struct.student], [100 x %struct.student]* @stu, i64 0, i64 %196
  %198 = getelementptr inbounds %struct.student, %struct.student* %197, i32 0, i32 6
  %199 = load double, double* %198, align 8
  %200 = load i32, i32* %4, align 4
  %201 = sitofp i32 %200 to double
  %202 = fcmp oeq double %199, %201
  br i1 %202, label %203, label %210

203:                                              ; preds = %194
  %204 = load i32, i32* %3, align 4
  %205 = sext i32 %204 to i64
  %206 = getelementptr inbounds [100 x %struct.student], [100 x %struct.student]* @stu, i64 0, i64 %205
  %207 = getelementptr inbounds %struct.student, %struct.student* %206, i32 0, i32 0
  %208 = getelementptr inbounds [20 x i8], [20 x i8]* %207, i64 0, i64 0
  %209 = call i32 (i8*, ...) @printf(i8* getelementptr inbounds ([4 x i8], [4 x i8]* @.str.2, i64 0, i64 0), i8* %208)
  br label %214

210:                                              ; preds = %194
  br label %211

211:                                              ; preds = %210
  %212 = load i32, i32* %3, align 4
  %213 = add nsw i32 %212, 1
  store i32 %213, i32* %3, align 4
  br label %190

214:                                              ; preds = %203, %190
  store i32 0, i32* %3, align 4
  br label %215

215:                                              ; preds = %229, %214
  %216 = load i32, i32* %3, align 4
  %217 = load i32, i32* %2, align 4
  %218 = icmp slt i32 %216, %217
  br i1 %218, label %219, label %232

219:                                              ; preds = %215
  %220 = load i32, i32* %5, align 4
  %221 = sitofp i32 %220 to double
  %222 = load i32, i32* %3, align 4
  %223 = sext i32 %222 to i64
  %224 = getelementptr inbounds [100 x %struct.student], [100 x %struct.student]* @stu, i64 0, i64 %223
  %225 = getelementptr inbounds %struct.student, %struct.student* %224, i32 0, i32 6
  %226 = load double, double* %225, align 8
  %227 = fadd double %221, %226
  %228 = fptosi double %227 to i32
  store i32 %228, i32* %5, align 4
  br label %229

229:                                              ; preds = %219
  %230 = load i32, i32* %3, align 4
  %231 = add nsw i32 %230, 1
  store i32 %231, i32* %3, align 4
  br label %215

232:                                              ; preds = %215
  %233 = load i32, i32* %4, align 4
  %234 = load i32, i32* %5, align 4
  %235 = call i32 (i8*, ...) @printf(i8* getelementptr inbounds ([6 x i8], [6 x i8]* @.str.3, i64 0, i64 0), i32 %233, i32 %234)
  %236 = load i32, i32* %1, align 4
  ret i32 %236
}